; Function Attrs: nounwind sspstrong uwtable
define internal i32 @snapshot_access_co_preadv_part(ptr noundef readonly captures(none) %bs, i64 noundef %offset, i64 noundef %bytes, ptr noundef %qiov, i64 noundef %qiov_offset, i32 noundef %flags) #0 {
entry:
  %tobool.not = icmp eq i32 %flags, 0
  br i1 %tobool.not, label %if.end, label %return

if.end:                                           ; preds = %entry
  %file = getelementptr inbounds nuw i8, ptr %bs, i64 16840
  %0 = load ptr, ptr %file, align 8
  %call = tail call i32 @bdrv_co_preadv_snapshot(ptr noundef %0, i64 noundef %offset, i64 noundef %bytes, ptr noundef %qiov, i64 noundef %qiov_offset) #4
  br label %return

return:                                           ; preds = %entry, %if.end
  %retval.0 = phi i32 [ %call, %if.end ], [ -95, %entry ]
  ret i32 %retval.0
}